; Function Attrs: mustprogress uwtable
define void @_ZN5folly10SSLContext17setSigAlgsOrThrowERKNSt7__cxx1112basic_stringIcSt11char_traitsIcESaIcEEE(ptr noundef nonnull readonly align 8 captures(none) dereferenceable(304) %0, ptr noundef nonnull readonly align 8 captures(none) dereferenceable(32) %1) unnamed_addr #2 align 2 personality ptr @__gxx_personality_v0 {
  %3 = alloca %"class.std::__cxx11::basic_string", align 8
  %4 = alloca %"class.std::__cxx11::basic_string", align 8
  %5 = getelementptr inbounds nuw i8, ptr %0, i64 8
  %6 = load ptr, ptr %5, align 8, !tbaa !10
  %7 = load ptr, ptr %1, align 8, !tbaa !73
  %8 = tail call i64 @SSL_CTX_ctrl(ptr noundef %6, i32 noundef 98, i64 noundef 0, ptr noundef %7)
  %9 = icmp eq i64 %8, 0
  br i1 %9, label %10, label %46

10:                                               ; preds = %2
  %11 = tail call ptr @__cxa_allocate_exception(i64 16) #29
  call void @llvm.lifetime.start.p0(i64 32, ptr nonnull %3) #29
  call void @llvm.lifetime.start.p0(i64 32, ptr nonnull %4) #29
  %12 = tail call ptr @__errno_location() #31
  %13 = load i32, ptr %12, align 4, !tbaa !74, !noalias !81
  invoke void @_ZN5folly10SSLContext9getErrorsB5cxx11Ei(ptr dead_on_unwind nonnull writable sret(%"class.std::__cxx11::basic_string") align 8 %4, i32 noundef %13)
          to label %_ZN5folly10SSLContext9getErrorsB5cxx11Ev.exit unwind label %_ZNSt7__cxx1112basic_stringIcSt11char_traitsIcESaIcEED2Ev.exit13.thread

_ZN5folly10SSLContext9getErrorsB5cxx11Ev.exit:    ; preds = %10
  invoke void @_ZStplIcSt11char_traitsIcESaIcEENSt7__cxx1112basic_stringIT_T0_T1_EEPKS5_OS8_(ptr dead_on_unwind nonnull writable sret(%"class.std::__cxx11::basic_string") align 8 %3, ptr noundef nonnull @.str.40, ptr noundef nonnull align 8 dereferenceable(32) %4)
          to label %14 unwind label %_ZNSt7__cxx1112basic_stringIcSt11char_traitsIcESaIcEED2Ev.exit.thread

14:                                               ; preds = %_ZN5folly10SSLContext9getErrorsB5cxx11Ev.exit
  invoke void @_ZNSt13runtime_errorC1ERKNSt7__cxx1112basic_stringIcSt11char_traitsIcESaIcEEE(ptr noundef nonnull align 8 dereferenceable(16) %11, ptr noundef nonnull align 8 dereferenceable(32) %3)
          to label %15 unwind label %17

15:                                               ; preds = %14
  invoke void @__cxa_throw(ptr nonnull %11, ptr nonnull @_ZTISt13runtime_error, ptr nonnull @_ZNSt13runtime_errorD1Ev) #32
          to label %47 unwind label %17

_ZNSt7__cxx1112basic_stringIcSt11char_traitsIcESaIcEED2Ev.exit13.thread: ; preds = %10
  %16 = landingpad { ptr, i32 }
          cleanup
  br label %.sink.split

17:                                               ; preds = %15, %14
  %.0 = phi i1 [ false, %15 ], [ true, %14 ]
  %18 = landingpad { ptr, i32 }
          cleanup
  %19 = load ptr, ptr %3, align 8, !tbaa !73
  %20 = getelementptr inbounds nuw i8, ptr %3, i64 16
  %21 = icmp eq ptr %19, %20
  br i1 %21, label %_ZNKSt7__cxx1112basic_stringIcSt11char_traitsIcESaIcEE11_M_is_localEv.exit.thread.i.i, label %_ZNKSt7__cxx1112basic_stringIcSt11char_traitsIcESaIcEE11_M_is_localEv.exit.i.i

_ZNKSt7__cxx1112basic_stringIcSt11char_traitsIcESaIcEE11_M_is_localEv.exit.thread.i.i: ; preds = %17
  %22 = getelementptr inbounds nuw i8, ptr %3, i64 8
  %23 = load i64, ptr %22, align 8, !tbaa !79
  %24 = icmp ult i64 %23, 16
  call void @llvm.assume(i1 %24)
  br label %_ZNSt7__cxx1112basic_stringIcSt11char_traitsIcESaIcEED2Ev.exit

_ZNKSt7__cxx1112basic_stringIcSt11char_traitsIcESaIcEE11_M_is_localEv.exit.i.i: ; preds = %17
  %25 = load i64, ptr %20, align 8, !tbaa !80
  %26 = add i64 %25, 1
  call void @_ZdlPvm(ptr noundef %19, i64 noundef %26) #30
  br label %_ZNSt7__cxx1112basic_stringIcSt11char_traitsIcESaIcEED2Ev.exit

_ZNSt7__cxx1112basic_stringIcSt11char_traitsIcESaIcEED2Ev.exit: ; preds = %_ZNKSt7__cxx1112basic_stringIcSt11char_traitsIcESaIcEE11_M_is_localEv.exit.i.i, %_ZNKSt7__cxx1112basic_stringIcSt11char_traitsIcESaIcEE11_M_is_localEv.exit.thread.i.i
  %27 = load ptr, ptr %4, align 8, !tbaa !73
  %28 = getelementptr inbounds nuw i8, ptr %4, i64 16
  %29 = icmp eq ptr %27, %28
  br i1 %29, label %_ZNKSt7__cxx1112basic_stringIcSt11char_traitsIcESaIcEE11_M_is_localEv.exit.thread.i.i12, label %_ZNSt7__cxx1112basic_stringIcSt11char_traitsIcESaIcEED2Ev.exit13

_ZNSt7__cxx1112basic_stringIcSt11char_traitsIcESaIcEED2Ev.exit.thread: ; preds = %_ZN5folly10SSLContext9getErrorsB5cxx11Ev.exit
  %30 = landingpad { ptr, i32 }
          cleanup
  %31 = load ptr, ptr %4, align 8, !tbaa !73
  %32 = getelementptr inbounds nuw i8, ptr %4, i64 16
  %33 = icmp eq ptr %31, %32
  br i1 %33, label %_ZNKSt7__cxx1112basic_stringIcSt11char_traitsIcESaIcEE11_M_is_localEv.exit.thread.i.i12.thread, label %_ZNSt7__cxx1112basic_stringIcSt11char_traitsIcESaIcEED2Ev.exit13.thread26

_ZNSt7__cxx1112basic_stringIcSt11char_traitsIcESaIcEED2Ev.exit13.thread26: ; preds = %_ZNSt7__cxx1112basic_stringIcSt11char_traitsIcESaIcEED2Ev.exit.thread
  %34 = load i64, ptr %32, align 8, !tbaa !80
  %35 = add i64 %34, 1
  call void @_ZdlPvm(ptr noundef %31, i64 noundef %35) #30
  br label %.sink.split

_ZNKSt7__cxx1112basic_stringIcSt11char_traitsIcESaIcEE11_M_is_localEv.exit.thread.i.i12.thread: ; preds = %_ZNSt7__cxx1112basic_stringIcSt11char_traitsIcESaIcEED2Ev.exit.thread
  %36 = getelementptr inbounds nuw i8, ptr %4, i64 8
  %37 = load i64, ptr %36, align 8, !tbaa !79
  %38 = icmp ult i64 %37, 16
  call void @llvm.assume(i1 %38)
  br label %.sink.split

_ZNKSt7__cxx1112basic_stringIcSt11char_traitsIcESaIcEE11_M_is_localEv.exit.thread.i.i12: ; preds = %_ZNSt7__cxx1112basic_stringIcSt11char_traitsIcESaIcEED2Ev.exit
  %39 = getelementptr inbounds nuw i8, ptr %4, i64 8
  %40 = load i64, ptr %39, align 8, !tbaa !79
  %41 = icmp ult i64 %40, 16
  call void @llvm.assume(i1 %41)
  call void @llvm.lifetime.end.p0(i64 32, ptr nonnull %4) #29
  call void @llvm.lifetime.end.p0(i64 32, ptr nonnull %3) #29
  br i1 %.0, label %44, label %45

_ZNSt7__cxx1112basic_stringIcSt11char_traitsIcESaIcEED2Ev.exit13: ; preds = %_ZNSt7__cxx1112basic_stringIcSt11char_traitsIcESaIcEED2Ev.exit
  %42 = load i64, ptr %28, align 8, !tbaa !80
  %43 = add i64 %42, 1
  call void @_ZdlPvm(ptr noundef %27, i64 noundef %43) #30
  call void @llvm.lifetime.end.p0(i64 32, ptr nonnull %4) #29
  call void @llvm.lifetime.end.p0(i64 32, ptr nonnull %3) #29
  br i1 %.0, label %44, label %45

.sink.split:                                      ; preds = %_ZNSt7__cxx1112basic_stringIcSt11char_traitsIcESaIcEED2Ev.exit13.thread, %_ZNKSt7__cxx1112basic_stringIcSt11char_traitsIcESaIcEE11_M_is_localEv.exit.thread.i.i12.thread, %_ZNSt7__cxx1112basic_stringIcSt11char_traitsIcESaIcEED2Ev.exit13.thread26
  %.pn.pn17.ph = phi { ptr, i32 } [ %30, %_ZNSt7__cxx1112basic_stringIcSt11char_traitsIcESaIcEED2Ev.exit13.thread26 ], [ %30, %_ZNKSt7__cxx1112basic_stringIcSt11char_traitsIcESaIcEE11_M_is_localEv.exit.thread.i.i12.thread ], [ %16, %_ZNSt7__cxx1112basic_stringIcSt11char_traitsIcESaIcEED2Ev.exit13.thread ]
  call void @llvm.lifetime.end.p0(i64 32, ptr nonnull %4) #29
  call void @llvm.lifetime.end.p0(i64 32, ptr nonnull %3) #29
  br label %44

44:                                               ; preds = %.sink.split, %_ZNKSt7__cxx1112basic_stringIcSt11char_traitsIcESaIcEE11_M_is_localEv.exit.thread.i.i12, %_ZNSt7__cxx1112basic_stringIcSt11char_traitsIcESaIcEED2Ev.exit13
  %.pn.pn17 = phi { ptr, i32 } [ %18, %_ZNSt7__cxx1112basic_stringIcSt11char_traitsIcESaIcEED2Ev.exit13 ], [ %18, %_ZNKSt7__cxx1112basic_stringIcSt11char_traitsIcESaIcEE11_M_is_localEv.exit.thread.i.i12 ], [ %.pn.pn17.ph, %.sink.split ]
  call void @__cxa_free_exception(ptr %11) #29
  br label %45

45:                                               ; preds = %_ZNKSt7__cxx1112basic_stringIcSt11char_traitsIcESaIcEE11_M_is_localEv.exit.thread.i.i12, %44, %_ZNSt7__cxx1112basic_stringIcSt11char_traitsIcESaIcEED2Ev.exit13
  %.pn.pn16 = phi { ptr, i32 } [ %.pn.pn17, %44 ], [ %18, %_ZNSt7__cxx1112basic_stringIcSt11char_traitsIcESaIcEED2Ev.exit13 ], [ %18, %_ZNKSt7__cxx1112basic_stringIcSt11char_traitsIcESaIcEE11_M_is_localEv.exit.thread.i.i12 ]
  resume { ptr, i32 } %.pn.pn16

46:                                               ; preds = %2
  ret void

47:                                               ; preds = %15
  unreachable
}